#include <math.h>
#include <stdio.h>
#include <stdlib.h>
#include <string.h>

int main()
{
	int t[105];
	int n,m;
	int *tt[105];//????>_< 
	scanf("%d%d",&n,&m);
	for(int i = 1;i <= n;i ++){
		scanf("%d",&t[i]);
		tt[i] = &t[i];//??? 
	}
	for(int i = 1;i <= m;i ++){
		int p = *tt[n];
		for(int j = n;j >= 2;j --)
			*tt[j] = *tt[j-1];//??????= = 
		*tt[1] = p;
	}
	printf("%d",t[1]);
	for(int i =2;i <= n;i ++) printf(" %d",t[i]);
	printf("\n");
	return 0;
}